target datalayout = "e-m:e-p270:32:32-p271:32:32-p272:64:64-i64:64-i128:128-f80:128-n8:16:32:64-S128"
target triple = "x86_64-pc-linux-gnu"

%struct.magic_set = type { [2 x ptr], %struct.cont, %struct.out, i32, i32, i32, i32, i32, ptr, i64, i32, %struct.anon, %union.VALUETYPE, i16, i16, i16, i16, i16, i16, i64, i64, i64 }
%struct.cont = type { i64, ptr }
%struct.out = type { ptr, i64, ptr }
%struct.anon = type { ptr, i64, i64, i64 }
%union.VALUETYPE = type { [2 x i64], [112 x i8] }
%struct.buffer = type { i32, %struct.stat, ptr, i64, i64, ptr, i64 }
%struct.stat = type { i64, i64, i64, i32, i32, i32, i32, i64, i64, i64, i64, %struct.timespec, %struct.timespec, %struct.timespec, [3 x i64] }
%struct.timespec = type { i64, i64 }
%struct.magic = type { i16, i8, i8, i8, i8, i8, i8, i8, i8, i8, i8, i32, i32, i32, %union.anon, %union.VALUETYPE, [64 x i8], [80 x i8], [8 x i8], [64 x i8] }
%union.anon = type { i64 }

@stderr = external global ptr, align 8
@.str.2 = private unnamed_addr constant [32 x i8] c"non zero offset %zu at level %u\00", align 1
@.str.3 = private unnamed_addr constant [51 x i8] c"bb=[%p,%zu,%zu], %d [b=%p,%zu,%zu], [o=%#x, c=%d]\0A\00", align 1

; Function Attrs: nounwind uwtable
define internal i32 @msetoffset(ptr noundef %0, ptr noundef %1, ptr noundef %2, ptr noundef %3, i64 noundef %4, i32 noundef %5) #0 {
  %7 = alloca i32, align 4
  %8 = alloca ptr, align 8
  %9 = alloca ptr, align 8
  %10 = alloca ptr, align 8
  %11 = alloca ptr, align 8
  %12 = alloca i64, align 8
  %13 = alloca i32, align 4
  %14 = alloca i32, align 4
  store ptr %0, ptr %8, align 8
  store ptr %1, ptr %9, align 8
  store ptr %2, ptr %10, align 8
  store ptr %3, ptr %11, align 8
  store i64 %4, ptr %12, align 8
  store i32 %5, ptr %13, align 4
  %15 = load ptr, ptr %9, align 8
  %16 = getelementptr inbounds %struct.magic, ptr %15, i32 0, i32 1
  %17 = load i8, ptr %16, align 2
  %18 = zext i8 %17 to i32
  %19 = and i32 %18, 128
  %20 = icmp ne i32 %19, 0
  br i1 %20, label %21, label %80

21:                                               ; preds = %6
  %22 = load ptr, ptr %9, align 8
  %23 = getelementptr inbounds %struct.magic, ptr %22, i32 0, i32 11
  %24 = load i32, ptr %23, align 4
  %25 = sub nsw i32 0, %24
  store i32 %25, ptr %14, align 4
  %26 = load i32, ptr %13, align 4
  %27 = icmp ugt i32 %26, 0
  br i1 %27, label %28, label %37

28:                                               ; preds = %21
  %29 = load ptr, ptr %9, align 8
  %30 = getelementptr inbounds %struct.magic, ptr %29, i32 0, i32 1
  %31 = load i8, ptr %30, align 2
  %32 = zext i8 %31 to i32
  %33 = and i32 %32, 6
  %34 = icmp ne i32 %33, 0
  br i1 %34, label %35, label %36

35:                                               ; preds = %28
  br label %87

36:                                               ; preds = %28
  br label %37

37:                                               ; preds = %36, %21
  %38 = load ptr, ptr %11, align 8
  %39 = call i32 @buffer_fill(ptr noundef %38)
  %40 = icmp eq i32 %39, -1
  br i1 %40, label %41, label %42

41:                                               ; preds = %37
  store i32 -1, ptr %7, align 4
  br label %142

42:                                               ; preds = %37
  %43 = load i64, ptr %12, align 8
  %44 = icmp ne i64 %43, 0
  br i1 %44, label %45, label %49

45:                                               ; preds = %42
  %46 = load ptr, ptr %8, align 8
  %47 = load i64, ptr %12, align 8
  %48 = load i32, ptr %13, align 4
  call void (ptr, ptr, ...) @file_magerror(ptr noundef %46, ptr noundef @.str.2, i64 noundef %47, i32 noundef %48)
  store i32 -1, ptr %7, align 4
  br label %142

49:                                               ; preds = %42
  %50 = load ptr, ptr %9, align 8
  %51 = getelementptr inbounds %struct.magic, ptr %50, i32 0, i32 11
  %52 = load i32, ptr %51, align 4
  %53 = sext i32 %52 to i64
  %54 = load ptr, ptr %11, align 8
  %55 = getelementptr inbounds %struct.buffer, ptr %54, i32 0, i32 6
  %56 = load i64, ptr %55, align 8
  %57 = icmp ugt i64 %53, %56
  br i1 %57, label %58, label %59

58:                                               ; preds = %49
  store i32 -1, ptr %7, align 4
  br label %142

59:                                               ; preds = %49
  %60 = load ptr, ptr %10, align 8
  %61 = load ptr, ptr %11, align 8
  %62 = getelementptr inbounds %struct.buffer, ptr %61, i32 0, i32 5
  %63 = load ptr, ptr %62, align 8
  %64 = load ptr, ptr %11, align 8
  %65 = getelementptr inbounds %struct.buffer, ptr %64, i32 0, i32 6
  %66 = load i64, ptr %65, align 8
  call void @buffer_init(ptr noundef %60, i32 noundef -1, ptr noundef null, ptr noundef %63, i64 noundef %66)
  %67 = load ptr, ptr %11, align 8
  %68 = getelementptr inbounds %struct.buffer, ptr %67, i32 0, i32 6
  %69 = load i64, ptr %68, align 8
  %70 = load ptr, ptr %9, align 8
  %71 = getelementptr inbounds %struct.magic, ptr %70, i32 0, i32 11
  %72 = load i32, ptr %71, align 4
  %73 = sext i32 %72 to i64
  %74 = sub i64 %69, %73
  %75 = trunc i64 %74 to i32
  %76 = load ptr, ptr %8, align 8
  %77 = getelementptr inbounds %struct.magic_set, ptr %76, i32 0, i32 3
  store i32 %75, ptr %77, align 8
  %78 = load ptr, ptr %8, align 8
  %79 = getelementptr inbounds %struct.magic_set, ptr %78, i32 0, i32 4
  store i32 %75, ptr %79, align 4
  br label %109

80:                                               ; preds = %6
  %81 = load ptr, ptr %9, align 8
  %82 = getelementptr inbounds %struct.magic, ptr %81, i32 0, i32 11
  %83 = load i32, ptr %82, align 4
  store i32 %83, ptr %14, align 4
  %84 = load i32, ptr %13, align 4
  %85 = icmp eq i32 %84, 0
  br i1 %85, label %86, label %100

86:                                               ; preds = %80
  br label %87

87:                                               ; preds = %86, %35
  %88 = load ptr, ptr %10, align 8
  %89 = load ptr, ptr %11, align 8
  %90 = getelementptr inbounds %struct.buffer, ptr %89, i32 0, i32 2
  %91 = load ptr, ptr %90, align 8
  %92 = load ptr, ptr %11, align 8
  %93 = getelementptr inbounds %struct.buffer, ptr %92, i32 0, i32 3
  %94 = load i64, ptr %93, align 8
  call void @buffer_init(ptr noundef %88, i32 noundef -1, ptr noundef null, ptr noundef %91, i64 noundef %94)
  %95 = load i32, ptr %14, align 4
  %96 = load ptr, ptr %8, align 8
  %97 = getelementptr inbounds %struct.magic_set, ptr %96, i32 0, i32 3
  store i32 %95, ptr %97, align 8
  %98 = load ptr, ptr %8, align 8
  %99 = getelementptr inbounds %struct.magic_set, ptr %98, i32 0, i32 4
  store i32 0, ptr %99, align 4
  br label %108

100:                                              ; preds = %80
  %101 = load ptr, ptr %8, align 8
  %102 = getelementptr inbounds %struct.magic_set, ptr %101, i32 0, i32 4
  %103 = load i32, ptr %102, align 4
  %104 = load i32, ptr %14, align 4
  %105 = add i32 %103, %104
  %106 = load ptr, ptr %8, align 8
  %107 = getelementptr inbounds %struct.magic_set, ptr %106, i32 0, i32 3
  store i32 %105, ptr %107, align 8
  br label %108

108:                                              ; preds = %100, %87
  br label %109

109:                                              ; preds = %108, %59
  %110 = load ptr, ptr %8, align 8
  %111 = getelementptr inbounds %struct.magic_set, ptr %110, i32 0, i32 6
  %112 = load i32, ptr %111, align 4
  %113 = and i32 %112, 1
  %114 = icmp ne i32 %113, 0
  br i1 %114, label %115, label %141

115:                                              ; preds = %109
  %116 = load ptr, ptr @stderr, align 8
  %117 = load ptr, ptr %10, align 8
  %118 = getelementptr inbounds %struct.buffer, ptr %117, i32 0, i32 2
  %119 = load ptr, ptr %118, align 8
  %120 = load ptr, ptr %10, align 8
  %121 = getelementptr inbounds %struct.buffer, ptr %120, i32 0, i32 3
  %122 = load i64, ptr %121, align 8
  %123 = load ptr, ptr %10, align 8
  %124 = getelementptr inbounds %struct.buffer, ptr %123, i32 0, i32 6
  %125 = load i64, ptr %124, align 8
  %126 = load ptr, ptr %8, align 8
  %127 = getelementptr inbounds %struct.magic_set, ptr %126, i32 0, i32 3
  %128 = load i32, ptr %127, align 8
  %129 = load ptr, ptr %11, align 8
  %130 = getelementptr inbounds %struct.buffer, ptr %129, i32 0, i32 2
  %131 = load ptr, ptr %130, align 8
  %132 = load ptr, ptr %11, align 8
  %133 = getelementptr inbounds %struct.buffer, ptr %132, i32 0, i32 3
  %134 = load i64, ptr %133, align 8
  %135 = load ptr, ptr %11, align 8
  %136 = getelementptr inbounds %struct.buffer, ptr %135, i32 0, i32 6
  %137 = load i64, ptr %136, align 8
  %138 = load i32, ptr %14, align 4
  %139 = load i32, ptr %13, align 4
  %140 = call i32 (ptr, ptr, ...) @fprintf(ptr noundef %116, ptr noundef @.str.3, ptr noundef %119, i64 noundef %122, i64 noundef %125, i32 noundef %128, ptr noundef %131, i64 noundef %134, i64 noundef %137, i32 noundef %138, i32 noundef %139) #10
  br label %141

141:                                              ; preds = %115, %109
  store i32 0, ptr %7, align 4
  br label %142

142:                                              ; preds = %141, %58, %45, %41
  %143 = load i32, ptr %7, align 4
  ret i32 %143
}