; Function Attrs: nounwind uwtable
define internal fastcc noundef i32 @msetoffset(ptr noundef %0, ptr nocapture noundef readonly %1, ptr noundef %2, ptr noundef %3, i64 noundef %4, i32 noundef %5) unnamed_addr #0 {
  %7 = getelementptr inbounds i8, ptr %1, i64 2
  %8 = load i8, ptr %7, align 2
  %.not = icmp sgt i8 %8, -1
  %9 = getelementptr inbounds i8, ptr %1, i64 12
  %10 = load i32, ptr %9, align 4
  br i1 %.not, label %34, label %11

11:                                               ; preds = %6
  %12 = sub nsw i32 0, %10
  %.not42 = icmp eq i32 %5, 0
  %13 = and i8 %8, 6
  %.not43 = icmp eq i8 %13, 0
  %or.cond = or i1 %.not42, %.not43
  br i1 %or.cond, label %14, label %36

14:                                               ; preds = %11
  %15 = tail call i32 @buffer_fill(ptr noundef %3) #20
  %16 = icmp eq i32 %15, -1
  br i1 %16, label %68, label %17

17:                                               ; preds = %14
  %.not44 = icmp eq i64 %4, 0
  br i1 %.not44, label %19, label %18

18:                                               ; preds = %17
  tail call void (ptr, ptr, ...) @file_magerror(ptr noundef %0, ptr noundef nonnull @.str.2, i64 noundef %4, i32 noundef %5) #20
  br label %68

19:                                               ; preds = %17
  %20 = load i32, ptr %9, align 4
  %21 = sext i32 %20 to i64
  %22 = getelementptr inbounds i8, ptr %3, i64 184
  %23 = load i64, ptr %22, align 8
  %24 = icmp ult i64 %23, %21
  br i1 %24, label %68, label %25

25:                                               ; preds = %19
  %26 = getelementptr inbounds i8, ptr %3, i64 176
  %27 = load ptr, ptr %26, align 8
  tail call void @buffer_init(ptr noundef %2, i32 noundef -1, ptr noundef null, ptr noundef %27, i64 noundef %23) #20
  %28 = load i64, ptr %22, align 8
  %29 = load i32, ptr %9, align 4
  %30 = trunc i64 %28 to i32
  %31 = sub i32 %30, %29
  %32 = getelementptr inbounds i8, ptr %0, i64 56
  store i32 %31, ptr %32, align 8
  %33 = getelementptr inbounds i8, ptr %0, i64 60
  store i32 %31, ptr %33, align 4
  br label %48

34:                                               ; preds = %6
  %35 = icmp eq i32 %5, 0
  br i1 %35, label %36, label %43

36:                                               ; preds = %11, %34
  %.0 = phi i32 [ %10, %34 ], [ %12, %11 ]
  %37 = getelementptr inbounds i8, ptr %3, i64 152
  %38 = load ptr, ptr %37, align 8
  %39 = getelementptr inbounds i8, ptr %3, i64 160
  %40 = load i64, ptr %39, align 8
  tail call void @buffer_init(ptr noundef %2, i32 noundef -1, ptr noundef null, ptr noundef %38, i64 noundef %40) #20
  %41 = getelementptr inbounds i8, ptr %0, i64 56
  store i32 %.0, ptr %41, align 8
  %42 = getelementptr inbounds i8, ptr %0, i64 60
  store i32 0, ptr %42, align 4
  br label %48

43:                                               ; preds = %34
  %44 = getelementptr inbounds i8, ptr %0, i64 60
  %45 = load i32, ptr %44, align 4
  %46 = add i32 %45, %10
  %47 = getelementptr inbounds i8, ptr %0, i64 56
  store i32 %46, ptr %47, align 8
  br label %48

48:                                               ; preds = %36, %43, %25
  %49 = phi i32 [ %.0, %36 ], [ %31, %25 ], [ %46, %43 ]
  %.1 = phi i32 [ %.0, %36 ], [ %12, %25 ], [ %10, %43 ]
  %50 = getelementptr inbounds i8, ptr %0, i64 68
  %51 = load i32, ptr %50, align 4
  %52 = and i32 %51, 1
  %.not45 = icmp eq i32 %52, 0
  br i1 %.not45, label %68, label %53

53:                                               ; preds = %48
  %54 = load ptr, ptr @stderr, align 8
  %55 = getelementptr inbounds i8, ptr %2, i64 152
  %56 = load ptr, ptr %55, align 8
  %57 = getelementptr inbounds i8, ptr %2, i64 160
  %58 = load i64, ptr %57, align 8
  %59 = getelementptr inbounds i8, ptr %2, i64 184
  %60 = load i64, ptr %59, align 8
  %61 = getelementptr inbounds i8, ptr %3, i64 152
  %62 = load ptr, ptr %61, align 8
  %63 = getelementptr inbounds i8, ptr %3, i64 160
  %64 = load i64, ptr %63, align 8
  %65 = getelementptr inbounds i8, ptr %3, i64 184
  %66 = load i64, ptr %65, align 8
  %67 = tail call i32 (ptr, ptr, ...) @fprintf(ptr noundef %54, ptr noundef nonnull @.str.3, ptr noundef %56, i64 noundef %58, i64 noundef %60, i32 noundef %49, ptr noundef %62, i64 noundef %64, i64 noundef %66, i32 noundef %.1, i32 noundef %5) #22
  br label %68

68:                                               ; preds = %48, %53, %19, %14, %18
  %.039 = phi i32 [ -1, %18 ], [ -1, %14 ], [ -1, %19 ], [ 0, %53 ], [ 0, %48 ]
  ret i32 %.039
}